target datalayout = "e-m:e-p270:32:32-p271:32:32-p272:64:64-i64:64-i128:128-f80:128-n8:16:32:64-S128"
target triple = "x86_64-pc-linux-gnu"

%struct._object = type { %union.anon, ptr }
%union.anon = type { i64 }
%struct.fileio = type { %struct._object, i32, i8, i8, ptr, ptr, ptr }
%struct.anon = type { i32, i32 }

@PyExc_ValueError = external global ptr, align 8
@.str.35 = private unnamed_addr constant [29 x i8] c"I/O operation on closed file\00", align 1
@PyExc_OSError = external global ptr, align 8

; Function Attrs: alwaysinline nounwind uwtable
define internal i32 @_Py_IsImmortal(ptr noundef %0) #4 {
  %2 = alloca ptr, align 8
  store ptr %0, ptr %2, align 8, !tbaa !4
  %3 = load ptr, ptr %2, align 8, !tbaa !4
  %4 = getelementptr inbounds nuw %struct._object, ptr %3, i32 0, i32 0
  %5 = getelementptr inbounds nuw %struct.anon, ptr %4, i32 0, i32 0
  %6 = load i32, ptr %5, align 8, !tbaa !41
  %7 = icmp slt i32 %6, 0
  %8 = zext i1 %7 to i32
  ret i32 %8
}

; Function Attrs: alwaysinline nounwind uwtable
define internal void @Py_DECREF(ptr noundef %0) #4 {
  %2 = alloca ptr, align 8
  store ptr %0, ptr %2, align 8, !tbaa !4
  %3 = load ptr, ptr %2, align 8, !tbaa !4
  %4 = call i32 @_Py_IsImmortal(ptr noundef %3)
  %5 = icmp ne i32 %4, 0
  br i1 %5, label %6, label %7

6:                                                ; preds = %1
  br label %16

7:                                                ; preds = %1
  %8 = load ptr, ptr %2, align 8, !tbaa !4
  %9 = getelementptr inbounds nuw %struct._object, ptr %8, i32 0, i32 0
  %10 = getelementptr inbounds nuw %struct.anon, ptr %9, i32 0, i32 0
  %11 = load i32, ptr %10, align 8, !tbaa !41
  %12 = add i32 %11, -1
  store i32 %12, ptr %10, align 8, !tbaa !41
  %13 = icmp eq i32 %12, 0
  br i1 %13, label %14, label %16

14:                                               ; preds = %7
  %15 = load ptr, ptr %2, align 8, !tbaa !4
  call void @_Py_Dealloc(ptr noundef %15)
  br label %16

16:                                               ; preds = %6, %14, %7
  ret void
}

; Function Attrs: nounwind uwtable
define internal ptr @portable_lseek(ptr noundef %0, ptr noundef %1, i32 noundef %2, i1 noundef zeroext %3) #0 {
  %5 = alloca ptr, align 8
  %6 = alloca ptr, align 8
  %7 = alloca ptr, align 8
  %8 = alloca i32, align 4
  %9 = alloca i8, align 1
  %10 = alloca i64, align 8
  %11 = alloca i64, align 8
  %12 = alloca i32, align 4
  %13 = alloca i32, align 4
  %14 = alloca ptr, align 8
  store ptr %0, ptr %6, align 8, !tbaa !15
  store ptr %1, ptr %7, align 8, !tbaa !4
  store i32 %2, ptr %8, align 4, !tbaa !31
  %15 = zext i1 %3 to i8
  store i8 %15, ptr %9, align 1, !tbaa !72
  call void @llvm.lifetime.start.p0(i64 8, ptr %10) #9
  call void @llvm.lifetime.start.p0(i64 8, ptr %11) #9
  call void @llvm.lifetime.start.p0(i64 4, ptr %12) #9
  %16 = load ptr, ptr %6, align 8, !tbaa !15
  %17 = getelementptr inbounds nuw %struct.fileio, ptr %16, i32 0, i32 1
  %18 = load i32, ptr %17, align 8, !tbaa !9
  store i32 %18, ptr %12, align 4, !tbaa !31
  %19 = load i32, ptr %8, align 4, !tbaa !31
  switch i32 %19, label %20 [
  ]

20:                                               ; preds = %4
  %21 = load ptr, ptr %7, align 8, !tbaa !4
  %22 = icmp eq ptr %21, null
  br i1 %22, label %23, label %24

23:                                               ; preds = %20
  store i64 0, ptr %10, align 8, !tbaa !35
  br label %31

24:                                               ; preds = %20
  %25 = load ptr, ptr %7, align 8, !tbaa !4
  %26 = call i64 @PyLong_AsLong(ptr noundef %25)
  store i64 %26, ptr %10, align 8, !tbaa !35
  %27 = call ptr @PyErr_Occurred()
  %28 = icmp ne ptr %27, null
  br i1 %28, label %29, label %30

29:                                               ; preds = %24
  store ptr null, ptr %5, align 8
  store i32 1, ptr %13, align 4
  br label %75

30:                                               ; preds = %24
  br label %31

31:                                               ; preds = %30, %23
  call void @llvm.lifetime.start.p0(i64 8, ptr %14) #9
  %32 = call ptr @PyEval_SaveThread()
  store ptr %32, ptr %14, align 8, !tbaa !53
  %33 = load i32, ptr %12, align 4, !tbaa !31
  %34 = load i64, ptr %10, align 8, !tbaa !35
  %35 = load i32, ptr %8, align 4, !tbaa !31
  %36 = call i64 @lseek64(i32 noundef %33, i64 noundef %34, i32 noundef %35) #9
  store i64 %36, ptr %11, align 8, !tbaa !35
  %37 = load ptr, ptr %14, align 8, !tbaa !53
  call void @PyEval_RestoreThread(ptr noundef %37)
  call void @llvm.lifetime.end.p0(i64 8, ptr %14) #9
  %38 = load ptr, ptr %6, align 8, !tbaa !15
  %39 = getelementptr inbounds nuw %struct.fileio, ptr %38, i32 0, i32 2
  %40 = load i8, ptr %39, align 4
  %41 = shl i8 %40, 2
  %42 = ashr i8 %41, 6
  %43 = sext i8 %42 to i32
  %44 = icmp slt i32 %43, 0
  br i1 %44, label %45, label %57

45:                                               ; preds = %31
  %46 = load i64, ptr %11, align 8, !tbaa !35
  %47 = icmp sge i64 %46, 0
  %48 = zext i1 %47 to i32
  %49 = load ptr, ptr %6, align 8, !tbaa !15
  %50 = getelementptr inbounds nuw %struct.fileio, ptr %49, i32 0, i32 2
  %51 = trunc i32 %48 to i8
  %52 = load i8, ptr %50, align 4
  %53 = and i8 %51, 3
  %54 = shl i8 %53, 4
  %55 = and i8 %52, -49
  %56 = or i8 %55, %54
  store i8 %56, ptr %50, align 4
  br label %57

57:                                               ; preds = %45, %31
  %58 = load i64, ptr %11, align 8, !tbaa !35
  %59 = icmp slt i64 %58, 0
  br i1 %59, label %60, label %72

60:                                               ; preds = %57
  %61 = load i8, ptr %9, align 1, !tbaa !72, !range !74, !noundef !75
  %62 = trunc i8 %61 to i1
  br i1 %62, label %63, label %68

63:                                               ; preds = %60
  %64 = call ptr @__errno_location() #11
  %65 = load i32, ptr %64, align 4, !tbaa !31
  %66 = icmp eq i32 %65, 29
  br i1 %66, label %67, label %68

67:                                               ; preds = %63
  store i64 0, ptr %11, align 8, !tbaa !35
  br label %71

68:                                               ; preds = %63, %60
  %69 = load ptr, ptr @PyExc_OSError, align 8, !tbaa !4
  %70 = call ptr @PyErr_SetFromErrno(ptr noundef %69)
  store ptr %70, ptr %5, align 8
  store i32 1, ptr %13, align 4
  br label %75

71:                                               ; preds = %67
  br label %72

72:                                               ; preds = %71, %57
  %73 = load i64, ptr %11, align 8, !tbaa !35
  %74 = call ptr @PyLong_FromLong(i64 noundef %73)
  store ptr %74, ptr %5, align 8
  store i32 1, ptr %13, align 4
  br label %75

75:                                               ; preds = %72, %68, %29
  call void @llvm.lifetime.end.p0(i64 4, ptr %12) #9
  call void @llvm.lifetime.end.p0(i64 8, ptr %11) #9
  call void @llvm.lifetime.end.p0(i64 8, ptr %10) #9
  %76 = load ptr, ptr %5, align 8
  ret ptr %76
}

; Function Attrs: nounwind uwtable
define internal ptr @err_closed() #0 {
  %1 = load ptr, ptr @PyExc_ValueError, align 8, !tbaa !4
  call void @PyErr_SetString(ptr noundef %1, ptr noundef @.str.35)
  ret ptr null
}

; Function Attrs: nounwind uwtable
define internal ptr @_io_FileIO_seekable_impl(ptr noundef %0) #0 {
  %2 = alloca ptr, align 8
  %3 = alloca ptr, align 8
  %4 = alloca ptr, align 8
  store ptr %0, ptr %3, align 8, !tbaa !15
  %5 = load ptr, ptr %3, align 8, !tbaa !15
  %6 = getelementptr inbounds nuw %struct.fileio, ptr %5, i32 0, i32 1
  %7 = load i32, ptr %6, align 8, !tbaa !9
  %8 = icmp slt i32 %7, 0
  br i1 %8, label %9, label %11

9:                                                ; preds = %1
  %10 = call ptr @err_closed()
  store ptr %10, ptr %2, align 8
  br label %37

11:                                               ; preds = %1
  %12 = load ptr, ptr %3, align 8, !tbaa !15
  %13 = getelementptr inbounds nuw %struct.fileio, ptr %12, i32 0, i32 2
  %14 = load i8, ptr %13, align 4
  %15 = shl i8 %14, 2
  %16 = ashr i8 %15, 6
  %17 = sext i8 %16 to i32
  %18 = icmp slt i32 %17, 0
  br i1 %18, label %19, label %28

19:                                               ; preds = %11
  call void @llvm.lifetime.start.p0(i64 8, ptr %4) #9
  %20 = load ptr, ptr %3, align 8, !tbaa !15
  %21 = call ptr @portable_lseek(ptr noundef %20, ptr noundef null, i32 noundef 1, i1 noundef zeroext false)
  store ptr %21, ptr %4, align 8, !tbaa !4
  %22 = load ptr, ptr %4, align 8, !tbaa !4
  %23 = icmp eq ptr %22, null
  br i1 %23, label %24, label %25

24:                                               ; preds = %19
  call void @PyErr_Clear()
  br label %27

25:                                               ; preds = %19
  %26 = load ptr, ptr %4, align 8, !tbaa !4
  call void @Py_DECREF(ptr noundef %26)
  br label %27

27:                                               ; preds = %25, %24
  call void @llvm.lifetime.end.p0(i64 8, ptr %4) #9
  br label %28

28:                                               ; preds = %27, %11
  %29 = load ptr, ptr %3, align 8, !tbaa !15
  %30 = getelementptr inbounds nuw %struct.fileio, ptr %29, i32 0, i32 2
  %31 = load i8, ptr %30, align 4
  %32 = shl i8 %31, 2
  %33 = ashr i8 %32, 6
  %34 = sext i8 %33 to i32
  %35 = sext i32 %34 to i64
  %36 = call ptr @PyBool_FromLong(i64 noundef %35)
  store ptr %36, ptr %2, align 8
  br label %37

37:                                               ; preds = %28, %9
  %38 = load ptr, ptr %2, align 8
  ret ptr %38
}

; Function Attrs: nounwind uwtable
define internal ptr @_io_FileIO_seekable(ptr noundef %0, ptr noundef %1) #0 {
  %3 = alloca ptr, align 8
  %4 = alloca ptr, align 8
  store ptr %0, ptr %3, align 8, !tbaa !4
  store ptr %1, ptr %4, align 8, !tbaa !4
  %5 = load ptr, ptr %3, align 8, !tbaa !4
  %6 = call ptr @_io_FileIO_seekable_impl(ptr noundef %5)
  ret ptr %6
}