; Function Attrs: nounwind uwtable
define internal ptr @_io_FileIO_seekable(ptr noundef captures(none) %0, ptr readnone captures(none) %1) #1 {
  %3 = getelementptr inbounds nuw i8, ptr %0, i64 16
  %4 = load i32, ptr %3, align 8, !tbaa !4
  %5 = icmp slt i32 %4, 0
  br i1 %5, label %6, label %8

6:                                                ; preds = %2
  %7 = load ptr, ptr @PyExc_ValueError, align 8, !tbaa !21
  tail call void @PyErr_SetString(ptr noundef %7, ptr noundef nonnull @.str.35) #10
  br label %_io_FileIO_seekable_impl.exit

8:                                                ; preds = %2
  %9 = getelementptr inbounds nuw i8, ptr %0, i64 20
  %10 = load i8, ptr %9, align 4
  %.mask.i = and i8 %10, 32
  %.not.i = icmp eq i8 %.mask.i, 0
  br i1 %.not.i, label %Py_DECREF.exit.i, label %11

11:                                               ; preds = %8
  %12 = tail call ptr @PyEval_SaveThread() #10
  %13 = tail call i64 @lseek64(i32 noundef %4, i64 noundef 0, i32 noundef 1) #10
  tail call void @PyEval_RestoreThread(ptr noundef %12) #10
  %14 = load i8, ptr %9, align 4
  %.mask.i.i = and i8 %14, 32
  %.not17.i.i = icmp eq i8 %.mask.i.i, 0
  br i1 %.not17.i.i, label %20, label %15

15:                                               ; preds = %11
  %16 = icmp sgt i64 %13, -1
  %17 = select i1 %16, i8 16, i8 0
  %18 = and i8 %14, -49
  %19 = or disjoint i8 %18, %17
  store i8 %19, ptr %9, align 4
  br label %20

20:                                               ; preds = %15, %11
  %21 = icmp slt i64 %13, 0
  br i1 %21, label %22, label %25

22:                                               ; preds = %20
  %23 = load ptr, ptr @PyExc_OSError, align 8, !tbaa !21
  %24 = tail call ptr @PyErr_SetFromErrno(ptr noundef %23) #10
  br label %portable_lseek.exit.i

25:                                               ; preds = %20
  %26 = tail call ptr @PyLong_FromLong(i64 noundef %13) #10
  br label %portable_lseek.exit.i

portable_lseek.exit.i:                            ; preds = %25, %22
  %.0.i.i = phi ptr [ %26, %25 ], [ %24, %22 ]
  %27 = icmp eq ptr %.0.i.i, null
  br i1 %27, label %28, label %29

28:                                               ; preds = %portable_lseek.exit.i
  tail call void @PyErr_Clear() #10
  br label %Py_DECREF.exit.i

29:                                               ; preds = %portable_lseek.exit.i
  %30 = load i32, ptr %.0.i.i, align 8, !tbaa !22
  %.not.i.i = icmp sgt i32 %30, -1
  br i1 %.not.i.i, label %31, label %Py_DECREF.exit.i

31:                                               ; preds = %29
  %32 = add nsw i32 %30, -1
  store i32 %32, ptr %.0.i.i, align 8, !tbaa !22
  %33 = icmp eq i32 %32, 0
  br i1 %33, label %34, label %Py_DECREF.exit.i

34:                                               ; preds = %31
  tail call void @_Py_Dealloc(ptr noundef nonnull %.0.i.i) #10
  br label %Py_DECREF.exit.i

Py_DECREF.exit.i:                                 ; preds = %34, %31, %29, %28, %8
  %35 = load i8, ptr %9, align 4
  %36 = shl i8 %35, 2
  %37 = ashr i8 %36, 6
  %38 = sext i8 %37 to i64
  %39 = tail call ptr @PyBool_FromLong(i64 noundef %38) #10
  br label %_io_FileIO_seekable_impl.exit

_io_FileIO_seekable_impl.exit:                    ; preds = %6, %Py_DECREF.exit.i
  %.0.i = phi ptr [ null, %6 ], [ %39, %Py_DECREF.exit.i ]
  ret ptr %.0.i
}